target datalayout = "e-m:e-p270:32:32-p271:32:32-p272:64:64-i64:64-i128:128-f80:128-n8:16:32:64-S128"
target triple = "x86_64-pc-linux-gnu"

%"class.pxrInternal_v0_24__pxrReserved__::GfVec2d" = type { [2 x double] }
%"class.pxrInternal_v0_24__pxrReserved__::GfLineSeg2d" = type { %"class.pxrInternal_v0_24__pxrReserved__::GfLine2d", double }
%"class.pxrInternal_v0_24__pxrReserved__::GfLine2d" = type { %"class.pxrInternal_v0_24__pxrReserved__::GfVec2d", %"class.pxrInternal_v0_24__pxrReserved__::GfVec2d" }

; Function Attrs: mustprogress nounwind uwtable
define linkonce_odr noundef nonnull align 8 dereferenceable(8) ptr @_ZNK32pxrInternal_v0_24__pxrReserved__7GfVec2dixEm(ptr noundef nonnull align 8 dereferenceable(16) %0, i64 noundef %1) #2 comdat align 2 {
  %3 = alloca ptr, align 8
  %4 = alloca i64, align 8
  store ptr %0, ptr %3, align 8
  store i64 %1, ptr %4, align 8
  %5 = load ptr, ptr %3, align 8
  %6 = getelementptr inbounds nuw %"class.pxrInternal_v0_24__pxrReserved__::GfVec2d", ptr %5, i32 0, i32 0
  %7 = load i64, ptr %4, align 8
  %8 = getelementptr inbounds [2 x double], ptr %6, i64 0, i64 %7
  ret ptr %8
}

; Function Attrs: mustprogress uwtable
define linkonce_odr noundef nonnull align 8 dereferenceable(16) ptr @_ZN32pxrInternal_v0_24__pxrReserved__7GfVec2dpLERKS0_(ptr noundef nonnull align 8 dereferenceable(16) %0, ptr noundef nonnull align 8 dereferenceable(16) %1) #0 comdat align 2 {
  %3 = alloca ptr, align 8
  %4 = alloca ptr, align 8
  store ptr %0, ptr %3, align 8
  store ptr %1, ptr %4, align 8
  %5 = load ptr, ptr %3, align 8
  %6 = load ptr, ptr %4, align 8
  %7 = call noundef nonnull align 8 dereferenceable(8) ptr @_ZNK32pxrInternal_v0_24__pxrReserved__7GfVec2dixEm(ptr noundef nonnull align 8 dereferenceable(16) %6, i64 noundef 0)
  %8 = load double, ptr %7, align 8
  %9 = getelementptr inbounds nuw %"class.pxrInternal_v0_24__pxrReserved__::GfVec2d", ptr %5, i32 0, i32 0
  %10 = getelementptr inbounds [2 x double], ptr %9, i64 0, i64 0
  %11 = load double, ptr %10, align 8
  %12 = fadd double %11, %8
  store double %12, ptr %10, align 8
  %13 = load ptr, ptr %4, align 8
  %14 = call noundef nonnull align 8 dereferenceable(8) ptr @_ZNK32pxrInternal_v0_24__pxrReserved__7GfVec2dixEm(ptr noundef nonnull align 8 dereferenceable(16) %13, i64 noundef 1)
  %15 = load double, ptr %14, align 8
  %16 = getelementptr inbounds nuw %"class.pxrInternal_v0_24__pxrReserved__::GfVec2d", ptr %5, i32 0, i32 0
  %17 = getelementptr inbounds [2 x double], ptr %16, i64 0, i64 1
  %18 = load double, ptr %17, align 8
  %19 = fadd double %18, %15
  store double %19, ptr %17, align 8
  ret ptr %5
}

; Function Attrs: mustprogress nounwind uwtable
define linkonce_odr noundef nonnull align 8 dereferenceable(16) ptr @_ZN32pxrInternal_v0_24__pxrReserved__7GfVec2dmLEd(ptr noundef nonnull align 8 dereferenceable(16) %0, double noundef %1) #2 comdat align 2 {
  %3 = alloca ptr, align 8
  %4 = alloca double, align 8
  store ptr %0, ptr %3, align 8
  store double %1, ptr %4, align 8
  %5 = load ptr, ptr %3, align 8
  %6 = load double, ptr %4, align 8
  %7 = getelementptr inbounds nuw %"class.pxrInternal_v0_24__pxrReserved__::GfVec2d", ptr %5, i32 0, i32 0
  %8 = getelementptr inbounds [2 x double], ptr %7, i64 0, i64 0
  %9 = load double, ptr %8, align 8
  %10 = fmul double %9, %6
  store double %10, ptr %8, align 8
  %11 = load double, ptr %4, align 8
  %12 = getelementptr inbounds nuw %"class.pxrInternal_v0_24__pxrReserved__::GfVec2d", ptr %5, i32 0, i32 0
  %13 = getelementptr inbounds [2 x double], ptr %12, i64 0, i64 1
  %14 = load double, ptr %13, align 8
  %15 = fmul double %14, %11
  store double %15, ptr %13, align 8
  ret ptr %5
}

; Function Attrs: mustprogress uwtable
define linkonce_odr { double, double } @_ZN32pxrInternal_v0_24__pxrReserved__plERKNS_7GfVec2dES2_(ptr noundef nonnull align 8 dereferenceable(16) %0, ptr noundef nonnull align 8 dereferenceable(16) %1) #0 comdat {
  %3 = alloca %"class.pxrInternal_v0_24__pxrReserved__::GfVec2d", align 8
  %4 = alloca ptr, align 8
  %5 = alloca ptr, align 8
  %6 = alloca %"class.pxrInternal_v0_24__pxrReserved__::GfVec2d", align 8
  store ptr %0, ptr %4, align 8
  store ptr %1, ptr %5, align 8
  %7 = load ptr, ptr %5, align 8
  %8 = load ptr, ptr %4, align 8
  call void @llvm.memcpy.p0.p0.i64(ptr align 8 %6, ptr align 8 %8, i64 16, i1 false)
  %9 = call noundef nonnull align 8 dereferenceable(16) ptr @_ZN32pxrInternal_v0_24__pxrReserved__7GfVec2dpLERKS0_(ptr noundef nonnull align 8 dereferenceable(16) %6, ptr noundef nonnull align 8 dereferenceable(16) %7)
  call void @llvm.memcpy.p0.p0.i64(ptr align 8 %3, ptr align 8 %9, i64 16, i1 false)
  %10 = getelementptr inbounds nuw %"class.pxrInternal_v0_24__pxrReserved__::GfVec2d", ptr %3, i32 0, i32 0
  %11 = load { double, double }, ptr %10, align 8
  ret { double, double } %11
}

; Function Attrs: mustprogress uwtable
define linkonce_odr { double, double } @_ZNK32pxrInternal_v0_24__pxrReserved__7GfVec2dmlEd(ptr noundef nonnull align 8 dereferenceable(16) %0, double noundef %1) #0 comdat align 2 {
  %3 = alloca %"class.pxrInternal_v0_24__pxrReserved__::GfVec2d", align 8
  %4 = alloca ptr, align 8
  %5 = alloca double, align 8
  %6 = alloca %"class.pxrInternal_v0_24__pxrReserved__::GfVec2d", align 8
  store ptr %0, ptr %4, align 8
  store double %1, ptr %5, align 8
  %7 = load ptr, ptr %4, align 8
  %8 = load double, ptr %5, align 8
  call void @llvm.memcpy.p0.p0.i64(ptr align 8 %6, ptr align 8 %7, i64 16, i1 false)
  %9 = call noundef nonnull align 8 dereferenceable(16) ptr @_ZN32pxrInternal_v0_24__pxrReserved__7GfVec2dmLEd(ptr noundef nonnull align 8 dereferenceable(16) %6, double noundef %8)
  call void @llvm.memcpy.p0.p0.i64(ptr align 8 %3, ptr align 8 %9, i64 16, i1 false)
  %10 = getelementptr inbounds nuw %"class.pxrInternal_v0_24__pxrReserved__::GfVec2d", ptr %3, i32 0, i32 0
  %11 = load { double, double }, ptr %10, align 8
  ret { double, double } %11
}

; Function Attrs: mustprogress uwtable
define linkonce_odr { double, double } @_ZNK32pxrInternal_v0_24__pxrReserved__8GfLine2d8GetPointEd(ptr noundef nonnull align 8 dereferenceable(32) %0, double noundef %1) #0 comdat align 2 {
  %3 = alloca %"class.pxrInternal_v0_24__pxrReserved__::GfVec2d", align 8
  %4 = alloca ptr, align 8
  %5 = alloca double, align 8
  %6 = alloca %"class.pxrInternal_v0_24__pxrReserved__::GfVec2d", align 8
  store ptr %0, ptr %4, align 8
  store double %1, ptr %5, align 8
  %7 = load ptr, ptr %4, align 8
  %8 = getelementptr inbounds nuw %"class.pxrInternal_v0_24__pxrReserved__::GfLine2d", ptr %7, i32 0, i32 0
  %9 = getelementptr inbounds nuw %"class.pxrInternal_v0_24__pxrReserved__::GfLine2d", ptr %7, i32 0, i32 1
  %10 = load double, ptr %5, align 8
  %11 = call { double, double } @_ZNK32pxrInternal_v0_24__pxrReserved__7GfVec2dmlEd(ptr noundef nonnull align 8 dereferenceable(16) %9, double noundef %10)
  %12 = getelementptr inbounds nuw %"class.pxrInternal_v0_24__pxrReserved__::GfVec2d", ptr %6, i32 0, i32 0
  %13 = getelementptr inbounds nuw { double, double }, ptr %12, i32 0, i32 0
  %14 = extractvalue { double, double } %11, 0
  store double %14, ptr %13, align 8
  %15 = getelementptr inbounds nuw { double, double }, ptr %12, i32 0, i32 1
  %16 = extractvalue { double, double } %11, 1
  store double %16, ptr %15, align 8
  %17 = call { double, double } @_ZN32pxrInternal_v0_24__pxrReserved__plERKNS_7GfVec2dES2_(ptr noundef nonnull align 8 dereferenceable(16) %8, ptr noundef nonnull align 8 dereferenceable(16) %6)
  %18 = getelementptr inbounds nuw %"class.pxrInternal_v0_24__pxrReserved__::GfVec2d", ptr %3, i32 0, i32 0
  %19 = getelementptr inbounds nuw { double, double }, ptr %18, i32 0, i32 0
  %20 = extractvalue { double, double } %17, 0
  store double %20, ptr %19, align 8
  %21 = getelementptr inbounds nuw { double, double }, ptr %18, i32 0, i32 1
  %22 = extractvalue { double, double } %17, 1
  store double %22, ptr %21, align 8
  %23 = getelementptr inbounds nuw %"class.pxrInternal_v0_24__pxrReserved__::GfVec2d", ptr %3, i32 0, i32 0
  %24 = load { double, double }, ptr %23, align 8
  ret { double, double } %24
}

; Function Attrs: mustprogress uwtable
define linkonce_odr { double, double } @_ZNK32pxrInternal_v0_24__pxrReserved__11GfLineSeg2d8GetPointEd(ptr noundef nonnull align 8 dereferenceable(40) %0, double noundef %1) #0 comdat align 2 {
  %3 = alloca %"class.pxrInternal_v0_24__pxrReserved__::GfVec2d", align 8
  %4 = alloca ptr, align 8
  %5 = alloca double, align 8
  store ptr %0, ptr %4, align 8
  store double %1, ptr %5, align 8
  %6 = load ptr, ptr %4, align 8
  %7 = getelementptr inbounds nuw %"class.pxrInternal_v0_24__pxrReserved__::GfLineSeg2d", ptr %6, i32 0, i32 0
  %8 = load double, ptr %5, align 8
  %9 = getelementptr inbounds nuw %"class.pxrInternal_v0_24__pxrReserved__::GfLineSeg2d", ptr %6, i32 0, i32 1
  %10 = load double, ptr %9, align 8
  %11 = fmul double %8, %10
  %12 = call { double, double } @_ZNK32pxrInternal_v0_24__pxrReserved__8GfLine2d8GetPointEd(ptr noundef nonnull align 8 dereferenceable(32) %7, double noundef %11)
  %13 = getelementptr inbounds nuw %"class.pxrInternal_v0_24__pxrReserved__::GfVec2d", ptr %3, i32 0, i32 0
  %14 = getelementptr inbounds nuw { double, double }, ptr %13, i32 0, i32 0
  %15 = extractvalue { double, double } %12, 0
  store double %15, ptr %14, align 8
  %16 = getelementptr inbounds nuw { double, double }, ptr %13, i32 0, i32 1
  %17 = extractvalue { double, double } %12, 1
  store double %17, ptr %16, align 8
  %18 = getelementptr inbounds nuw %"class.pxrInternal_v0_24__pxrReserved__::GfVec2d", ptr %3, i32 0, i32 0
  %19 = load { double, double }, ptr %18, align 8
  ret { double, double } %19
}

; Function Attrs: mustprogress nounwind uwtable
define linkonce_odr noundef double @_ZN32pxrInternal_v0_24__pxrReserved__7GfClampEddd(double noundef %0, double noundef %1, double noundef %2) #2 comdat {
  %4 = alloca double, align 8
  %5 = alloca double, align 8
  %6 = alloca double, align 8
  %7 = alloca double, align 8
  store double %0, ptr %5, align 8
  store double %1, ptr %6, align 8
  store double %2, ptr %7, align 8
  %8 = load double, ptr %5, align 8
  %9 = load double, ptr %6, align 8
  %10 = fcmp olt double %8, %9
  br i1 %10, label %11, label %13

11:                                               ; preds = %3
  %12 = load double, ptr %6, align 8
  store double %12, ptr %4, align 8
  br label %21

13:                                               ; preds = %3
  %14 = load double, ptr %5, align 8
  %15 = load double, ptr %7, align 8
  %16 = fcmp ogt double %14, %15
  br i1 %16, label %17, label %19

17:                                               ; preds = %13
  %18 = load double, ptr %7, align 8
  store double %18, ptr %4, align 8
  br label %21

19:                                               ; preds = %13
  %20 = load double, ptr %5, align 8
  store double %20, ptr %4, align 8
  br label %21

21:                                               ; preds = %19, %17, %11
  %22 = load double, ptr %4, align 8
  ret double %22
}

; Function Attrs: mustprogress uwtable
define { double, double } @_ZNK32pxrInternal_v0_24__pxrReserved__11GfLineSeg2d16FindClosestPointERKNS_7GfVec2dEPd(ptr noundef nonnull align 8 dereferenceable(40) %0, ptr noundef nonnull align 8 dereferenceable(16) %1, ptr noundef %2) #0 align 2 {
  %4 = alloca %"class.pxrInternal_v0_24__pxrReserved__::GfVec2d", align 8
  %5 = alloca ptr, align 8
  %6 = alloca ptr, align 8
  %7 = alloca ptr, align 8
  %8 = alloca double, align 8
  %9 = alloca %"class.pxrInternal_v0_24__pxrReserved__::GfVec2d", align 8
  store ptr %0, ptr %5, align 8
  store ptr %1, ptr %6, align 8
  store ptr %2, ptr %7, align 8
  %10 = load ptr, ptr %5, align 8
  %11 = getelementptr inbounds nuw %"class.pxrInternal_v0_24__pxrReserved__::GfLineSeg2d", ptr %10, i32 0, i32 1
  %12 = load double, ptr %11, align 8
  %13 = fcmp oeq double %12, 0.000000e+00
  br i1 %13, label %14, label %15

14:                                               ; preds = %3
  store double 0.000000e+00, ptr %8, align 8
  br label %29

15:                                               ; preds = %3
  %16 = getelementptr inbounds nuw %"class.pxrInternal_v0_24__pxrReserved__::GfLineSeg2d", ptr %10, i32 0, i32 0
  %17 = load ptr, ptr %6, align 8
  %18 = call { double, double } @_ZNK32pxrInternal_v0_24__pxrReserved__8GfLine2d16FindClosestPointERKNS_7GfVec2dEPd(ptr noundef nonnull align 8 dereferenceable(32) %16, ptr noundef nonnull align 8 dereferenceable(16) %17, ptr noundef %8)
  %19 = getelementptr inbounds nuw %"class.pxrInternal_v0_24__pxrReserved__::GfVec2d", ptr %9, i32 0, i32 0
  %20 = getelementptr inbounds nuw { double, double }, ptr %19, i32 0, i32 0
  %21 = extractvalue { double, double } %18, 0
  store double %21, ptr %20, align 8
  %22 = getelementptr inbounds nuw { double, double }, ptr %19, i32 0, i32 1
  %23 = extractvalue { double, double } %18, 1
  store double %23, ptr %22, align 8
  %24 = load double, ptr %8, align 8
  %25 = getelementptr inbounds nuw %"class.pxrInternal_v0_24__pxrReserved__::GfLineSeg2d", ptr %10, i32 0, i32 1
  %26 = load double, ptr %25, align 8
  %27 = fdiv double %24, %26
  %28 = call noundef double @_ZN32pxrInternal_v0_24__pxrReserved__7GfClampEddd(double noundef %27, double noundef 0.000000e+00, double noundef 1.000000e+00)
  store double %28, ptr %8, align 8
  br label %29

29:                                               ; preds = %15, %14
  %30 = load ptr, ptr %7, align 8
  %31 = icmp ne ptr %30, null
  br i1 %31, label %32, label %35

32:                                               ; preds = %29
  %33 = load double, ptr %8, align 8
  %34 = load ptr, ptr %7, align 8
  store double %33, ptr %34, align 8
  br label %35

35:                                               ; preds = %32, %29
  %36 = load double, ptr %8, align 8
  %37 = call { double, double } @_ZNK32pxrInternal_v0_24__pxrReserved__11GfLineSeg2d8GetPointEd(ptr noundef nonnull align 8 dereferenceable(40) %10, double noundef %36)
  %38 = getelementptr inbounds nuw %"class.pxrInternal_v0_24__pxrReserved__::GfVec2d", ptr %4, i32 0, i32 0
  %39 = getelementptr inbounds nuw { double, double }, ptr %38, i32 0, i32 0
  %40 = extractvalue { double, double } %37, 0
  store double %40, ptr %39, align 8
  %41 = getelementptr inbounds nuw { double, double }, ptr %38, i32 0, i32 1
  %42 = extractvalue { double, double } %37, 1
  store double %42, ptr %41, align 8
  %43 = getelementptr inbounds nuw %"class.pxrInternal_v0_24__pxrReserved__::GfVec2d", ptr %4, i32 0, i32 0
  %44 = load { double, double }, ptr %43, align 8
  ret { double, double } %44
}