; Function Attrs: mustprogress uwtable
define { double, double } @_ZNK32pxrInternal_v0_24__pxrReserved__11GfLineSeg2d16FindClosestPointERKNS_7GfVec2dEPd(ptr noundef nonnull align 8 dereferenceable(40) %0, ptr noundef nonnull align 8 dereferenceable(16) %1, ptr noundef writeonly %2) local_unnamed_addr #0 align 2 {
  %4 = alloca double, align 8
  %5 = getelementptr inbounds nuw i8, ptr %0, i64 32
  %6 = load double, ptr %5, align 8
  %7 = fcmp oeq double %6, 0.000000e+00
  br i1 %7, label %15, label %8

8:                                                ; preds = %3
  %9 = call { double, double } @_ZNK32pxrInternal_v0_24__pxrReserved__8GfLine2d16FindClosestPointERKNS_7GfVec2dEPd(ptr noundef nonnull align 8 dereferenceable(32) %0, ptr noundef nonnull align 8 dereferenceable(16) %1, ptr noundef nonnull %4)
  %10 = load double, ptr %4, align 8
  %11 = load double, ptr %5, align 8
  %12 = fdiv double %10, %11
  %13 = fcmp olt double %12, 0.000000e+00
  %14 = fcmp ogt double %12, 1.000000e+00
  %..i = select i1 %14, double 1.000000e+00, double %12
  %.0.i = select i1 %13, double 0.000000e+00, double %..i
  br label %15

15:                                               ; preds = %3, %8
  %16 = phi double [ %11, %8 ], [ %6, %3 ]
  %storemerge = phi double [ %.0.i, %8 ], [ 0.000000e+00, %3 ]
  %.not = icmp eq ptr %2, null
  br i1 %.not, label %18, label %17

17:                                               ; preds = %15
  store double %storemerge, ptr %2, align 8
  %.pre = load double, ptr %5, align 8
  br label %18

18:                                               ; preds = %17, %15
  %19 = phi double [ %.pre, %17 ], [ %16, %15 ]
  %20 = fmul double %storemerge, %19
  %21 = getelementptr inbounds nuw i8, ptr %0, i64 16
  %.sroa.0.0.copyload2.i.i.i = load double, ptr %21, align 8
  %.sroa.4.0..sroa_idx.i.i.i = getelementptr inbounds nuw i8, ptr %0, i64 24
  %.sroa.4.0.copyload.i.i.i = load double, ptr %.sroa.4.0..sroa_idx.i.i.i, align 8
  %22 = fmul double %20, %.sroa.0.0.copyload2.i.i.i
  %23 = fmul double %20, %.sroa.4.0.copyload.i.i.i
  %.sroa.0.0.copyload2.i2.i.i = load double, ptr %0, align 8
  %.sroa.4.0..sroa_idx.i3.i.i = getelementptr inbounds nuw i8, ptr %0, i64 8
  %.sroa.4.0.copyload.i4.i.i = load double, ptr %.sroa.4.0..sroa_idx.i3.i.i, align 8
  %24 = fadd double %22, %.sroa.0.0.copyload2.i2.i.i
  %25 = fadd double %23, %.sroa.4.0.copyload.i4.i.i
  %.fca.0.insert.i5.i.i = insertvalue { double, double } poison, double %24, 0
  %.fca.1.insert.i6.i.i = insertvalue { double, double } %.fca.0.insert.i5.i.i, double %25, 1
  ret { double, double } %.fca.1.insert.i6.i.i
}